target datalayout = "e-m:e-p270:32:32-p271:32:32-p272:64:64-i64:64-i128:128-f80:128-n8:16:32:64-S128"
target triple = "x86_64-pc-linux-gnu"

%"class.icu_77::CollationKey" = type { %"class.icu_77::UObject", i32, i32, %"union.icu_77::CollationKey::StackBufferOrFields" }
%"class.icu_77::UObject" = type { ptr }
%"union.icu_77::CollationKey::StackBufferOrFields" = type { %struct.anon, [16 x i8] }
%struct.anon = type { ptr, i32 }

@_ZTVN6icu_7712CollationKeyE = unnamed_addr constant { [5 x ptr] } { [5 x ptr] [ptr null, ptr @_ZTIN6icu_7712CollationKeyE, ptr @_ZN6icu_7712CollationKeyD1Ev, ptr @_ZN6icu_7712CollationKeyD0Ev, ptr @_ZNK6icu_7712CollationKey17getDynamicClassIDEv] }, align 8
@_ZTVN6icu_777UObjectE = available_externally unnamed_addr constant { [5 x ptr] } { [5 x ptr] [ptr null, ptr @_ZTIN6icu_777UObjectE, ptr @_ZN6icu_777UObjectD1Ev, ptr @_ZN6icu_777UObjectD0Ev, ptr @_ZNK6icu_777UObject17getDynamicClassIDEv] }, align 8

; Function Attrs: mustprogress nounwind uwtable
define linkonce_odr noundef ptr @_ZNK6icu_7712CollationKey8getBytesEv(ptr noundef nonnull align 8 dereferenceable(48) %0) #0 comdat align 2 {
  %2 = alloca ptr, align 8
  store ptr %0, ptr %2, align 8, !tbaa !3
  %3 = load ptr, ptr %2, align 8
  %4 = getelementptr inbounds nuw %"class.icu_77::CollationKey", ptr %3, i32 0, i32 1
  %5 = load i32, ptr %4, align 8, !tbaa !10
  %6 = icmp sge i32 %5, 0
  br i1 %6, label %7, label %10

7:                                                ; preds = %1
  %8 = getelementptr inbounds nuw %"class.icu_77::CollationKey", ptr %3, i32 0, i32 3
  %9 = getelementptr inbounds [32 x i8], ptr %8, i64 0, i64 0
  br label %14

10:                                               ; preds = %1
  %11 = getelementptr inbounds nuw %"class.icu_77::CollationKey", ptr %3, i32 0, i32 3
  %12 = getelementptr inbounds nuw %struct.anon, ptr %11, i32 0, i32 0
  %13 = load ptr, ptr %12, align 8, !tbaa !20
  br label %14

14:                                               ; preds = %10, %7
  %15 = phi ptr [ %9, %7 ], [ %13, %10 ]
  ret ptr %15
}

; Function Attrs: mustprogress nounwind uwtable
define linkonce_odr noundef ptr @_ZN6icu_7712CollationKey8getBytesEv(ptr noundef nonnull align 8 dereferenceable(48) %0) #0 comdat align 2 {
  %2 = alloca ptr, align 8
  store ptr %0, ptr %2, align 8, !tbaa !3
  %3 = load ptr, ptr %2, align 8
  %4 = getelementptr inbounds nuw %"class.icu_77::CollationKey", ptr %3, i32 0, i32 1
  %5 = load i32, ptr %4, align 8, !tbaa !10
  %6 = icmp sge i32 %5, 0
  br i1 %6, label %7, label %10

7:                                                ; preds = %1
  %8 = getelementptr inbounds nuw %"class.icu_77::CollationKey", ptr %3, i32 0, i32 3
  %9 = getelementptr inbounds [32 x i8], ptr %8, i64 0, i64 0
  br label %14

10:                                               ; preds = %1
  %11 = getelementptr inbounds nuw %"class.icu_77::CollationKey", ptr %3, i32 0, i32 3
  %12 = getelementptr inbounds nuw %struct.anon, ptr %11, i32 0, i32 0
  %13 = load ptr, ptr %12, align 8, !tbaa !20
  br label %14

14:                                               ; preds = %10, %7
  %15 = phi ptr [ %9, %7 ], [ %13, %10 ]
  ret ptr %15
}

; Function Attrs: mustprogress uwtable
define noundef ptr @_ZN6icu_7712CollationKey10reallocateEii(ptr noundef nonnull align 8 dereferenceable(48) %0, i32 noundef %1, i32 noundef %2) #3 align 2 {
  %4 = alloca ptr, align 8
  %5 = alloca ptr, align 8
  %6 = alloca i32, align 4
  %7 = alloca i32, align 4
  %8 = alloca ptr, align 8
  %9 = alloca i32, align 4
  store ptr %0, ptr %5, align 8, !tbaa !3
  store i32 %1, ptr %6, align 4, !tbaa !19
  store i32 %2, ptr %7, align 4, !tbaa !19
  %10 = load ptr, ptr %5, align 8
  call void @llvm.lifetime.start.p0(i64 8, ptr %8) #11
  %11 = load i32, ptr %6, align 4, !tbaa !19
  %12 = sext i32 %11 to i64
  %13 = call noalias ptr @uprv_malloc_77(i64 noundef %12) #12
  store ptr %13, ptr %8, align 8, !tbaa !17
  %14 = load ptr, ptr %8, align 8, !tbaa !17
  %15 = icmp eq ptr %14, null
  br i1 %15, label %16, label %17

16:                                               ; preds = %3
  store ptr null, ptr %4, align 8
  store i32 1, ptr %9, align 4
  br label %47

17:                                               ; preds = %3
  %18 = load i32, ptr %7, align 4, !tbaa !19
  %19 = icmp sgt i32 %18, 0
  br i1 %19, label %20, label %28

20:                                               ; preds = %17
  br label %21

21:                                               ; preds = %20
  %22 = load ptr, ptr %8, align 8, !tbaa !17
  %23 = call noundef ptr @_ZN6icu_7712CollationKey8getBytesEv(ptr noundef nonnull align 8 dereferenceable(48) %10)
  %24 = load i32, ptr %7, align 4, !tbaa !19
  %25 = sext i32 %24 to i64
  call void @llvm.memcpy.p0.p0.i64(ptr align 1 %22, ptr align 1 %23, i64 %25, i1 false)
  br label %26

26:                                               ; preds = %21
  br label %27

27:                                               ; preds = %26
  br label %28

28:                                               ; preds = %27, %17
  %29 = getelementptr inbounds nuw %"class.icu_77::CollationKey", ptr %10, i32 0, i32 1
  %30 = load i32, ptr %29, align 8, !tbaa !10
  %31 = icmp slt i32 %30, 0
  br i1 %31, label %32, label %36

32:                                               ; preds = %28
  %33 = getelementptr inbounds nuw %"class.icu_77::CollationKey", ptr %10, i32 0, i32 3
  %34 = getelementptr inbounds nuw %struct.anon, ptr %33, i32 0, i32 0
  %35 = load ptr, ptr %34, align 8, !tbaa !20
  call void @uprv_free_77(ptr noundef %35)
  br label %36

36:                                               ; preds = %32, %28
  %37 = load ptr, ptr %8, align 8, !tbaa !17
  %38 = getelementptr inbounds nuw %"class.icu_77::CollationKey", ptr %10, i32 0, i32 3
  %39 = getelementptr inbounds nuw %struct.anon, ptr %38, i32 0, i32 0
  store ptr %37, ptr %39, align 8, !tbaa !20
  %40 = load i32, ptr %6, align 4, !tbaa !19
  %41 = getelementptr inbounds nuw %"class.icu_77::CollationKey", ptr %10, i32 0, i32 3
  %42 = getelementptr inbounds nuw %struct.anon, ptr %41, i32 0, i32 1
  store i32 %40, ptr %42, align 8, !tbaa !20
  %43 = getelementptr inbounds nuw %"class.icu_77::CollationKey", ptr %10, i32 0, i32 1
  %44 = load i32, ptr %43, align 8, !tbaa !10
  %45 = or i32 %44, -2147483648
  store i32 %45, ptr %43, align 8, !tbaa !10
  %46 = load ptr, ptr %8, align 8, !tbaa !17
  store ptr %46, ptr %4, align 8
  store i32 1, ptr %9, align 4
  br label %47

47:                                               ; preds = %36, %16
  call void @llvm.lifetime.end.p0(i64 8, ptr %8) #11
  %48 = load ptr, ptr %4, align 8
  ret ptr %48
}

; Function Attrs: mustprogress nounwind uwtable
define linkonce_odr noundef i32 @_ZNK6icu_7712CollationKey11getCapacityEv(ptr noundef nonnull align 8 dereferenceable(48) %0) #0 comdat align 2 {
  %2 = alloca ptr, align 8
  store ptr %0, ptr %2, align 8, !tbaa !3
  %3 = load ptr, ptr %2, align 8
  %4 = getelementptr inbounds nuw %"class.icu_77::CollationKey", ptr %3, i32 0, i32 1
  %5 = load i32, ptr %4, align 8, !tbaa !10
  %6 = icmp sge i32 %5, 0
  br i1 %6, label %7, label %8

7:                                                ; preds = %1
  br label %12

8:                                                ; preds = %1
  %9 = getelementptr inbounds nuw %"class.icu_77::CollationKey", ptr %3, i32 0, i32 3
  %10 = getelementptr inbounds nuw %struct.anon, ptr %9, i32 0, i32 1
  %11 = load i32, ptr %10, align 8, !tbaa !20
  br label %12

12:                                               ; preds = %8, %7
  %13 = phi i32 [ 32, %7 ], [ %11, %8 ]
  ret i32 %13
}

; Function Attrs: mustprogress nounwind uwtable
define noundef nonnull align 8 dereferenceable(48) ptr @_ZN6icu_7712CollationKey10setToBogusEv(ptr noundef nonnull align 8 dereferenceable(48) %0) #0 align 2 {
  %2 = alloca ptr, align 8
  store ptr %0, ptr %2, align 8, !tbaa !3
  %3 = load ptr, ptr %2, align 8
  %4 = getelementptr inbounds nuw %"class.icu_77::CollationKey", ptr %3, i32 0, i32 1
  %5 = load i32, ptr %4, align 8, !tbaa !10
  %6 = and i32 %5, -2147483648
  store i32 %6, ptr %4, align 8, !tbaa !10
  %7 = getelementptr inbounds nuw %"class.icu_77::CollationKey", ptr %3, i32 0, i32 2
  store i32 2, ptr %7, align 4, !tbaa !14
  ret ptr %3
}

; Function Attrs: inlinehint mustprogress nounwind uwtable
define linkonce_odr noundef signext i8 @_ZNK6icu_7712CollationKey7isBogusEv(ptr noundef nonnull align 8 dereferenceable(48) %0) #2 comdat align 2 {
  %2 = alloca ptr, align 8
  store ptr %0, ptr %2, align 8, !tbaa !3
  %3 = load ptr, ptr %2, align 8
  %4 = getelementptr inbounds nuw %"class.icu_77::CollationKey", ptr %3, i32 0, i32 2
  %5 = load i32, ptr %4, align 4, !tbaa !14
  %6 = icmp eq i32 %5, 2
  %7 = zext i1 %6 to i8
  ret i8 %7
}

; Function Attrs: mustprogress nounwind uwtable
define linkonce_odr noundef i32 @_ZNK6icu_7712CollationKey9getLengthEv(ptr noundef nonnull align 8 dereferenceable(48) %0) #0 comdat align 2 {
  %2 = alloca ptr, align 8
  store ptr %0, ptr %2, align 8, !tbaa !3
  %3 = load ptr, ptr %2, align 8
  %4 = getelementptr inbounds nuw %"class.icu_77::CollationKey", ptr %3, i32 0, i32 1
  %5 = load i32, ptr %4, align 8, !tbaa !10
  %6 = and i32 %5, 2147483647
  ret i32 %6
}

; Function Attrs: inlinehint mustprogress nounwind uwtable
define linkonce_odr void @_ZN6icu_777UObjectC2ERKS0_(ptr noundef nonnull align 8 dereferenceable(8) %0, ptr noundef nonnull align 8 dereferenceable(8) %1) unnamed_addr #2 comdat align 2 {
  %3 = alloca ptr, align 8
  %4 = alloca ptr, align 8
  store ptr %0, ptr %3, align 8, !tbaa !15
  store ptr %1, ptr %4, align 8, !tbaa !15
  %5 = load ptr, ptr %3, align 8
  store ptr getelementptr inbounds inrange(-16, 24) ({ [5 x ptr] }, ptr @_ZTVN6icu_777UObjectE, i32 0, i32 0, i32 2), ptr %5, align 8, !tbaa !8
  ret void
}

; Function Attrs: mustprogress uwtable
define void @_ZN6icu_7712CollationKeyC2ERKS0_(ptr noundef nonnull align 8 dereferenceable(48) %0, ptr noundef nonnull align 8 dereferenceable(48) %1) unnamed_addr #3 align 2 personality ptr @__gxx_personality_v0 {
  %3 = alloca ptr, align 8
  %4 = alloca ptr, align 8
  %5 = alloca ptr, align 8
  %6 = alloca i32, align 4
  %7 = alloca i32, align 4
  %8 = alloca i32, align 4
  store ptr %0, ptr %3, align 8, !tbaa !3
  store ptr %1, ptr %4, align 8, !tbaa !3
  %9 = load ptr, ptr %3, align 8
  %10 = load ptr, ptr %4, align 8, !tbaa !3
  call void @_ZN6icu_777UObjectC2ERKS0_(ptr noundef nonnull align 8 dereferenceable(8) %9, ptr noundef nonnull align 8 dereferenceable(8) %10) #11
  store ptr getelementptr inbounds inrange(-16, 24) ({ [5 x ptr] }, ptr @_ZTVN6icu_7712CollationKeyE, i32 0, i32 0, i32 2), ptr %9, align 8, !tbaa !8
  %11 = getelementptr inbounds nuw %"class.icu_77::CollationKey", ptr %9, i32 0, i32 1
  %12 = load ptr, ptr %4, align 8, !tbaa !3
  %13 = invoke noundef i32 @_ZNK6icu_7712CollationKey9getLengthEv(ptr noundef nonnull align 8 dereferenceable(48) %12)
          to label %14 unwind label %26

14:                                               ; preds = %2
  store i32 %13, ptr %11, align 8, !tbaa !10
  %15 = getelementptr inbounds nuw %"class.icu_77::CollationKey", ptr %9, i32 0, i32 2
  %16 = load ptr, ptr %4, align 8, !tbaa !3
  %17 = getelementptr inbounds nuw %"class.icu_77::CollationKey", ptr %16, i32 0, i32 2
  %18 = load i32, ptr %17, align 4, !tbaa !14
  store i32 %18, ptr %15, align 4, !tbaa !14
  %19 = load ptr, ptr %4, align 8, !tbaa !3
  %20 = invoke noundef signext i8 @_ZNK6icu_7712CollationKey7isBogusEv(ptr noundef nonnull align 8 dereferenceable(48) %19)
          to label %21 unwind label %26

21:                                               ; preds = %14
  %22 = icmp ne i8 %20, 0
  br i1 %22, label %23, label %30

23:                                               ; preds = %21
  %24 = invoke noundef nonnull align 8 dereferenceable(48) ptr @_ZN6icu_7712CollationKey10setToBogusEv(ptr noundef nonnull align 8 dereferenceable(48) %9)
          to label %25 unwind label %26

25:                                               ; preds = %23
  br label %66

26:                                               ; preds = %23, %14, %2
  %27 = landingpad { ptr, i32 }
          cleanup
  %28 = extractvalue { ptr, i32 } %27, 0
  store ptr %28, ptr %5, align 8
  %29 = extractvalue { ptr, i32 } %27, 1
  store i32 %29, ptr %6, align 4
  br label %67

30:                                               ; preds = %21
  call void @llvm.lifetime.start.p0(i64 4, ptr %7) #11
  %31 = getelementptr inbounds nuw %"class.icu_77::CollationKey", ptr %9, i32 0, i32 1
  %32 = load i32, ptr %31, align 8, !tbaa !10
  store i32 %32, ptr %7, align 4, !tbaa !19
  %33 = load i32, ptr %7, align 4, !tbaa !19
  %34 = invoke noundef i32 @_ZNK6icu_7712CollationKey11getCapacityEv(ptr noundef nonnull align 8 dereferenceable(48) %9)
          to label %35 unwind label %45

35:                                               ; preds = %30
  %36 = icmp sgt i32 %33, %34
  br i1 %36, label %37, label %49

37:                                               ; preds = %35
  %38 = load i32, ptr %7, align 4, !tbaa !19
  %39 = invoke noundef ptr @_ZN6icu_7712CollationKey10reallocateEii(ptr noundef nonnull align 8 dereferenceable(48) %9, i32 noundef %38, i32 noundef 0)
          to label %40 unwind label %45

40:                                               ; preds = %37
  %41 = icmp eq ptr %39, null
  br i1 %41, label %42, label %49

42:                                               ; preds = %40
  %43 = invoke noundef nonnull align 8 dereferenceable(48) ptr @_ZN6icu_7712CollationKey10setToBogusEv(ptr noundef nonnull align 8 dereferenceable(48) %9)
          to label %44 unwind label %45

44:                                               ; preds = %42
  store i32 1, ptr %8, align 4
  br label %64

45:                                               ; preds = %55, %53, %42, %37, %30
  %46 = landingpad { ptr, i32 }
          cleanup
  %47 = extractvalue { ptr, i32 } %46, 0
  store ptr %47, ptr %5, align 8
  %48 = extractvalue { ptr, i32 } %46, 1
  store i32 %48, ptr %6, align 4
  call void @llvm.lifetime.end.p0(i64 4, ptr %7) #11
  br label %67

49:                                               ; preds = %40, %35
  %50 = load i32, ptr %7, align 4, !tbaa !19
  %51 = icmp sgt i32 %50, 0
  br i1 %51, label %52, label %63

52:                                               ; preds = %49
  br label %53

53:                                               ; preds = %52
  %54 = invoke noundef ptr @_ZN6icu_7712CollationKey8getBytesEv(ptr noundef nonnull align 8 dereferenceable(48) %9)
          to label %55 unwind label %45

55:                                               ; preds = %53
  %56 = load ptr, ptr %4, align 8, !tbaa !3
  %57 = invoke noundef ptr @_ZNK6icu_7712CollationKey8getBytesEv(ptr noundef nonnull align 8 dereferenceable(48) %56)
          to label %58 unwind label %45

58:                                               ; preds = %55
  %59 = load i32, ptr %7, align 4, !tbaa !19
  %60 = sext i32 %59 to i64
  call void @llvm.memcpy.p0.p0.i64(ptr align 1 %54, ptr align 1 %57, i64 %60, i1 false)
  br label %61

61:                                               ; preds = %58
  br label %62

62:                                               ; preds = %61
  br label %63

63:                                               ; preds = %62, %49
  store i32 0, ptr %8, align 4
  br label %64

64:                                               ; preds = %63, %44
  call void @llvm.lifetime.end.p0(i64 4, ptr %7) #11
  %65 = load i32, ptr %8, align 4
  switch i32 %65, label %73 [
    i32 0, label %66
    i32 1, label %66
  ]

66:                                               ; preds = %25, %64, %64
  ret void

67:                                               ; preds = %45, %26
  call void @_ZN6icu_777UObjectD2Ev(ptr noundef nonnull align 8 dereferenceable(8) %9) #11
  br label %68

68:                                               ; preds = %67
  %69 = load ptr, ptr %5, align 8
  %70 = load i32, ptr %6, align 4
  %71 = insertvalue { ptr, i32 } poison, ptr %69, 0
  %72 = insertvalue { ptr, i32 } %71, i32 %70, 1
  resume { ptr, i32 } %72

73:                                               ; preds = %64
  unreachable
}