; Function Attrs: mustprogress uwtable
define void @_ZN6icu_7712CollationKeyC2ERKS0_(ptr noundef nonnull align 8 dereferenceable(48) initializes((0, 16)) %0, ptr noundef nonnull readonly align 8 captures(none) dereferenceable(48) %1) unnamed_addr #2 align 2 personality ptr @__gxx_personality_v0 {
  store ptr getelementptr inbounds nuw inrange(-16, 24) (i8, ptr @_ZTVN6icu_7712CollationKeyE, i64 16), ptr %0, align 8, !tbaa !3
  %3 = getelementptr inbounds nuw i8, ptr %0, i64 8
  %4 = getelementptr inbounds nuw i8, ptr %1, i64 8
  %5 = load i32, ptr %4, align 8, !tbaa !6
  %6 = and i32 %5, 2147483647
  store i32 %6, ptr %3, align 8, !tbaa !6
  %7 = getelementptr inbounds nuw i8, ptr %0, i64 12
  %8 = getelementptr inbounds nuw i8, ptr %1, i64 12
  %9 = load i32, ptr %8, align 4, !tbaa !11
  store i32 %9, ptr %7, align 4, !tbaa !11
  %.not = icmp eq i32 %9, 2
  br i1 %.not, label %10, label %11

10:                                               ; preds = %2
  store i32 0, ptr %3, align 8, !tbaa !6
  store i32 2, ptr %7, align 4, !tbaa !11
  br label %41

11:                                               ; preds = %2
  %12 = getelementptr inbounds nuw i8, ptr %0, i64 24
  %13 = icmp samesign ugt i32 %6, 32
  br i1 %13, label %14, label %31

14:                                               ; preds = %11
  %15 = zext nneg i32 %6 to i64
  %16 = invoke noalias ptr @uprv_malloc_77(i64 noundef %15) #15
          to label %.noexc unwind label %29

.noexc:                                           ; preds = %14
  %17 = icmp eq ptr %16, null
  %18 = load i32, ptr %3, align 8, !tbaa !6
  br i1 %17, label %27, label %19

19:                                               ; preds = %.noexc
  %20 = icmp slt i32 %18, 0
  br i1 %20, label %21, label %.thread

21:                                               ; preds = %19
  %22 = getelementptr inbounds nuw i8, ptr %0, i64 16
  %23 = load ptr, ptr %22, align 8, !tbaa !12
  invoke void @uprv_free_77(ptr noundef %23)
          to label %.noexc11 unwind label %29

.noexc11:                                         ; preds = %21
  %.pre11.i = load i32, ptr %3, align 8, !tbaa !6
  br label %.thread

.thread:                                          ; preds = %.noexc11, %19
  %24 = phi i32 [ %.pre11.i, %.noexc11 ], [ %18, %19 ]
  %25 = getelementptr inbounds nuw i8, ptr %0, i64 16
  store ptr %16, ptr %25, align 8, !tbaa !12
  store i32 %6, ptr %12, align 8, !tbaa !12
  %26 = or i32 %24, -2147483648
  store i32 %26, ptr %3, align 8, !tbaa !6
  br label %32

27:                                               ; preds = %.noexc
  %28 = and i32 %18, -2147483648
  store i32 %28, ptr %3, align 8, !tbaa !6
  store i32 2, ptr %7, align 4, !tbaa !11
  br label %41

29:                                               ; preds = %21, %14
  %30 = landingpad { ptr, i32 }
          cleanup
  tail call void @_ZN6icu_777UObjectD2Ev(ptr noundef nonnull align 8 dereferenceable(8) %0) #16
  resume { ptr, i32 } %30

31:                                               ; preds = %11
  %.not12 = icmp eq i32 %6, 0
  br i1 %.not12, label %41, label %._crit_edge

._crit_edge:                                      ; preds = %31
  %.phi.trans.insert = getelementptr inbounds nuw i8, ptr %0, i64 16
  %.pre = load ptr, ptr %.phi.trans.insert, align 8
  %.pre13 = zext nneg i32 %6 to i64
  br label %32

32:                                               ; preds = %._crit_edge, %.thread
  %.pre-phi = phi i64 [ %.pre13, %._crit_edge ], [ %15, %.thread ]
  %33 = phi ptr [ %.pre, %._crit_edge ], [ %16, %.thread ]
  %34 = getelementptr inbounds nuw i8, ptr %0, i64 16
  %35 = select i1 %13, ptr %33, ptr %34
  %36 = load i32, ptr %4, align 8, !tbaa !6
  %37 = getelementptr inbounds nuw i8, ptr %1, i64 16
  %38 = load ptr, ptr %37, align 8
  %39 = icmp slt i32 %36, 0
  %40 = select i1 %39, ptr %38, ptr %37
  tail call void @llvm.memcpy.p0.p0.i64(ptr align 1 %35, ptr align 1 %40, i64 %.pre-phi, i1 false)
  br label %41

41:                                               ; preds = %27, %32, %31, %10
  ret void
}